(lp0
VEDDF92EDC22C4FA7B290
p1
aVF4B253F12B15458F9D54
p2
aV26094B919BB8499E988D
p3
aVAD0A83C3BDCA40CC880A
p4
aVC1D579F6E5E84D718D90
p5
aVB5FD327E318342B0BDFE
p6
aV52D39F13C73542B29D9E
p7
aV0E4D50F0F6194438843D
p8
aV98F4F55BF0BB43A5AF89
p9
aVF7359DCDE8464E1AA4D8
p10
aVF2910F779A1C48D2B3C7
p11
aVB51FDFF626A64E91BF8E
p12
aV219DC9771E024568A136
p13
aV3ED425C8F3404B9098B3
p14
aVF2AF00B2DA984AA98621
p15
aV5264A940B9FE46F29A13
p16
aVBF42C2D41BE74657B649
p17
aVE01F16D4F07148D1B350
p18
aV709DC50F51044F739446
p19
aVA2D91379981D42338ED2
p20
aV91A2F533F91D4052BF9B
p21
aV515B528287264598A59A
p22
aV0012FD58A0CB45FF8CF6
p23
aV84DEA3300AAA496B907B
p24
aVED9D03CCA6B643B6B22F
p25
aV65438817A9454996A5B8
p26
a.